Certificate:
    Data:
        Version: 1 (0x0)
        Serial Number: 9 (0x9)
    Signature Algorithm: sha512WithRSAEncryption
        Issuer: C=US, ST=CA, O=Open vSwitch, OU=switchca, CN=OVS switchca CA Certificate (2017 feb 06 11:14:32)
        Validity
            Not Before: Mar 28 09:29:11 2017 GMT
            Not After : Mar 26 09:29:11 2027 GMT
        Subject: C=US, ST=CA, O=Open vSwitch, OU=Open vSwitch certifier, CN=sc id:0a2b3b21-e2c3-4073-a2ae-537a6b1ab36d
        Subject Public Key Info:
            Public Key Algorithm: rsaEncryption
                Public-Key: (2048 bit)
                Modulus:
                    00:dc:df:e1:b7:ca:24:6c:2a:6f:f1:8e:9c:3e:4b:
                    77:11:30:ce:9c:15:1a:a8:2c:6d:4a:36:8a:2b:a6:
                    f7:68:9f:2e:5d:ec:00:2e:66:37:27:43:1c:c4:54:
                    22:ae:47:10:a6:de:bd:f6:b1:42:fa:8b:62:20:d0:
                    0c:08:c3:1e:90:97:87:f2:fc:6a:ed:de:8b:92:bd:
                    e5:ed:06:32:3b:42:7d:49:6d:ae:db:5b:73:08:9e:
                    2b:0b:3f:09:23:a0:90:b3:e0:d6:ef:d1:33:a3:6d:
                    4f:81:7a:ef:09:75:af:55:b7:4e:e0:b4:f2:20:2f:
                    2a:a0:1b:79:68:47:25:83:81:1e:0d:53:70:ba:ab:
                    2d:09:94:e8:43:17:ed:74:8c:45:51:fb:dd:b1:81:
                    74:ae:ae:5e:b6:6f:f8:cb:9c:95:82:b0:75:45:31:
                    97:04:b9:d9:b4:99:29:67:5d:59:9d:87:cc:7e:b1:
                    e2:1f:3b:d1:6a:cf:08:47:02:f5:ed:d0:d8:69:8c:
                    32:f8:dd:90:d5:9b:17:93:40:04:e7:9c:40:0a:7e:
                    15:72:37:ca:56:59:9e:24:21:02:95:68:07:58:c3:
                    38:e1:a9:15:53:8c:4f:ad:3a:63:ba:2f:3c:ea:f0:
                    81:7b:9c:0f:d7:0b:f1:00:5f:12:80:4b:2d:fc:09:
                    7f:1d
                Exponent: 65537 (0x10001)
    Signature Algorithm: sha512WithRSAEncryption
         13:6d:09:aa:ff:fb:bc:c0:53:78:d3:a6:98:f2:48:dd:6d:16:
         0f:65:8d:bc:e8:58:f1:59:ed:fc:ef:3b:c6:69:53:89:86:f6:
         9a:93:a2:ed:52:75:4f:6e:1d:7c:b7:4a:b2:96:cb:1d:6b:da:
         8c:b7:ff:82:dd:b8:df:b9:01:c3:d6:ea:fd:a0:0b:54:16:06:
         a2:8c:0a:65:40:8f:de:b0:b5:a0:0e:6a:1d:fc:d3:f7:05:a3:
         3d:5e:d3:b9:6d:44:33:9f:a5:6f:40:82:3c:c7:94:60:49:d1:
         6e:96:e0:9c:f8:4a:6d:52:21:0f:c9:21:2c:d9:ea:1d:2c:aa:
         2e:cf:8c:69:ef:21:45:44:a1:36:e7:0a:59:b2:5b:be:95:e7:
         12:be:00:37:01:ed:42:81:4c:df:66:7c:c1:c2:c0:a7:11:aa:
         12:6e:c7:83:13:2e:16:b4:7c:82:59:9d:d4:ef:88:02:57:39:
         d0:0b:9a:2b:ff:92:69:b3:77:db:b7:ab:45:8b:db:94:d9:4b:
         d5:ea:62:91:49:ef:ce:97:99:f3:4f:5a:54:2a:d1:a8:75:e4:
         a6:77:ad:59:9c:64:56:70:73:32:65:07:f4:2f:ed:f8:23:2e:
         7f:6b:28:4f:2d:e4:07:2e:fd:d8:f1:63:0e:bb:e9:84:a5:f7:
         05:f3:95:8a
-----BEGIN CERTIFICATE-----
MIIDfjCCAmYCAQkwDQYJKoZIhvcNAQENBQAwgYExCzAJBgNVBAYTAlVTMQswCQYD
VQQIEwJDQTEVMBMGA1UEChMMT3BlbiB2U3dpdGNoMREwDwYDVQQLEwhzd2l0Y2hj
YTE7MDkGA1UEAxMyT1ZTIHN3aXRjaGNhIENBIENlcnRpZmljYXRlICgyMDE3IGZl
YiAwNiAxMToxNDozMikwHhcNMTcwMzI4MDkyOTExWhcNMjcwMzI2MDkyOTExWjCB
hzELMAkGA1UEBhMCVVMxCzAJBgNVBAgTAkNBMRUwEwYDVQQKEwxPcGVuIHZTd2l0
Y2gxHzAdBgNVBAsTFk9wZW4gdlN3aXRjaCBjZXJ0aWZpZXIxMzAxBgNVBAMTKnNj
IGlkOjBhMmIzYjIxLWUyYzMtNDA3My1hMmFlLTUzN2E2YjFhYjM2ZDCCASIwDQYJ
KoZIhvcNAQEBBQADggEPADCCAQoCggEBANzf4bfKJGwqb/GOnD5LdxEwzpwVGqgs
bUo2iium92ifLl3sAC5mNydDHMRUIq5HEKbevfaxQvqLYiDQDAjDHpCXh/L8au3e
i5K95e0GMjtCfUltrttbcwieKws/CSOgkLPg1u/RM6NtT4F67wl1r1W3TuC08iAv
KqAbeWhHJYOBHg1TcLqrLQmU6EMX7XSMRVH73bGBdK6uXrZv+MuclYKwdUUxlwS5
2bSZKWddWZ2HzH6x4h870WrPCEcC9e3Q2GmMMvjdkNWbF5NABOecQAp+FXI3ylZZ
niQhApVoB1jDOOGpFVOMT606Y7ovPOrwgXucD9cL8QBfEoBLLfwJfx0CAwEAATAN
BgkqhkiG9w0BAQ0FAAOCAQEAE20Jqv/7vMBTeNOmmPJI3W0WD2WNvOhY8Vnt/O87
xmlTiYb2mpOi7VJ1T24dfLdKspbLHWvajLf/gt2437kBw9bq/aALVBYGoowKZUCP
3rC1oA5qHfzT9wWjPV7TuW1EM5+lb0CCPMeUYEnRbpbgnPhKbVIhD8khLNnqHSyq
Ls+Mae8hRUShNucKWbJbvpXnEr4ANwHtQoFM32Z8wcLApxGqEm7HgxMuFrR8glmd
1O+IAlc50AuaK/+SabN327erRYvblNlL1epikUnvzpeZ809aVCrRqHXkpnetWZxk
VnBzMmUH9C/t+CMuf2soTy3kBy792PFjDrvphKX3BfOVig==
-----END CERTIFICATE-----
